

Microchip MPLAB XC8 Assembler V2.10 build 88905656 
                                                                                               Sun Feb 16 22:25:19 2020

Microchip MPLAB XC8 C Compiler v2.10 (Free license) build 20190730164152 Og1 
     1                           	processor	16F887
     2                           	opt	pw 120
     3                           	opt	flic
     4                           	psect	cinit,global,class=CODE,merge=1,delta=2
     5                           	psect	bssCOMMON,global,class=COMMON,space=1,delta=1
     6                           	psect	bssBANK0,global,class=BANK0,space=1,delta=1
     7                           	psect	cstackCOMMON,global,class=COMMON,space=1,delta=1
     8                           	psect	cstackBANK0,global,class=BANK0,space=1,delta=1
     9                           	psect	maintext,global,class=CODE,split=1,delta=2
    10                           	psect	text1,local,class=CODE,merge=1,delta=2
    11                           	psect	text2,local,class=CODE,merge=1,delta=2
    12                           	psect	text3,local,class=CODE,merge=1,delta=2
    13                           	psect	text4,local,class=CODE,merge=1,delta=2
    14                           	psect	text5,local,class=CODE,merge=1,delta=2
    15                           	psect	text6,local,class=CODE,merge=1,delta=2
    16                           	psect	text7,local,class=CODE,merge=1,delta=2
    17                           	psect	intentry,global,class=CODE,delta=2
    18                           	psect	text8,local,class=CODE,merge=1,delta=2
    19                           	dabs	1,0x7E,2
    20  0000                     
    21                           ; Version 2.10
    22                           ; Generated 31/07/2019 GMT
    23                           ; 
    24                           ; Copyright © 2019, Microchip Technology Inc. and its subsidiaries ("Microchip")
    25                           ; All rights reserved.
    26                           ; 
    27                           ; This software is developed by Microchip Technology Inc. and its subsidiaries ("Microch
      +                          ip").
    28                           ; 
    29                           ; Redistribution and use in source and binary forms, with or without modification, are
    30                           ; permitted provided that the following conditions are met:
    31                           ; 
    32                           ;     1. Redistributions of source code must retain the above copyright notice, this lis
      +                          t of
    33                           ;        conditions and the following disclaimer.
    34                           ; 
    35                           ;     2. Redistributions in binary form must reproduce the above copyright notice, this 
      +                          list
    36                           ;        of conditions and the following disclaimer in the documentation and/or other
    37                           ;        materials provided with the distribution.
    38                           ; 
    39                           ;     3. Microchip's name may not be used to endorse or promote products derived from th
      +                          is
    40                           ;        software without specific prior written permission.
    41                           ; 
    42                           ; THIS SOFTWARE IS PROVIDED BY MICROCHIP "AS IS" AND ANY EXPRESS OR IMPLIED WARRANTIES,
    43                           ; INCLUDING, BUT NOT LIMITED TO, THE IMPLIED WARRANTIES OF MERCHANTABILITY AND FITNESS F
      +                          OR
    44                           ; PURPOSE ARE DISCLAIMED.  IN NO EVENT SHALL MICROCHIP BE LIABLE FOR ANY DIRECT, INDIREC
      +                          T,
    45                           ; INCIDENTAL, SPECIAL, EXEMPLARY, OR CONSEQUENTIAL DAMAGES (INCLUDING BUT NOT LIMITED TO
    46                           ; PROCUREMENT OF SUBSTITUTE GOODS OR SERVICES; LOSS OF USE, DATA OR PROFITS; OR BUSINESS
    47                           ; INTERRUPTION) HOWSOEVER CAUSED AND ON ANY THEORY OF LIABILITY, WHETHER IN CONTRACT, ST
      +                          RICT
    48                           ; LIABILITY, OR TORT (INCLUDING NEGLIGENCE OR OTHERWISE) ARISING IN ANY WAY OUT OF THE U
      +                          SE OF
    49                           ; THIS SOFTWARE, EVEN IF ADVISED OF THE POSSIBILITY OF SUCH DAMAGE.
    50                           ; 
    51                           ; 
    52                           ; Code-generator required, PIC16F887 Definitions
    53                           ; 
    54                           ; SFR Addresses
    55  0000                     	;# 
    56  0001                     	;# 
    57  0002                     	;# 
    58  0003                     	;# 
    59  0004                     	;# 
    60  0005                     	;# 
    61  0006                     	;# 
    62  0007                     	;# 
    63  0008                     	;# 
    64  0009                     	;# 
    65  000A                     	;# 
    66  000B                     	;# 
    67  000C                     	;# 
    68  000D                     	;# 
    69  000E                     	;# 
    70  000E                     	;# 
    71  000F                     	;# 
    72  0010                     	;# 
    73  0011                     	;# 
    74  0012                     	;# 
    75  0013                     	;# 
    76  0014                     	;# 
    77  0015                     	;# 
    78  0015                     	;# 
    79  0016                     	;# 
    80  0017                     	;# 
    81  0018                     	;# 
    82  0019                     	;# 
    83  001A                     	;# 
    84  001B                     	;# 
    85  001B                     	;# 
    86  001C                     	;# 
    87  001D                     	;# 
    88  001E                     	;# 
    89  001F                     	;# 
    90  0081                     	;# 
    91  0085                     	;# 
    92  0086                     	;# 
    93  0087                     	;# 
    94  0088                     	;# 
    95  0089                     	;# 
    96  008C                     	;# 
    97  008D                     	;# 
    98  008E                     	;# 
    99  008F                     	;# 
   100  0090                     	;# 
   101  0091                     	;# 
   102  0092                     	;# 
   103  0093                     	;# 
   104  0093                     	;# 
   105  0093                     	;# 
   106  0094                     	;# 
   107  0095                     	;# 
   108  0096                     	;# 
   109  0097                     	;# 
   110  0098                     	;# 
   111  0099                     	;# 
   112  009A                     	;# 
   113  009B                     	;# 
   114  009C                     	;# 
   115  009D                     	;# 
   116  009E                     	;# 
   117  009F                     	;# 
   118  0105                     	;# 
   119  0107                     	;# 
   120  0108                     	;# 
   121  0109                     	;# 
   122  010C                     	;# 
   123  010C                     	;# 
   124  010D                     	;# 
   125  010E                     	;# 
   126  010F                     	;# 
   127  0185                     	;# 
   128  0187                     	;# 
   129  0188                     	;# 
   130  0189                     	;# 
   131  018C                     	;# 
   132  018D                     	;# 
   133  0000                     	;# 
   134  0001                     	;# 
   135  0002                     	;# 
   136  0003                     	;# 
   137  0004                     	;# 
   138  0005                     	;# 
   139  0006                     	;# 
   140  0007                     	;# 
   141  0008                     	;# 
   142  0009                     	;# 
   143  000A                     	;# 
   144  000B                     	;# 
   145  000C                     	;# 
   146  000D                     	;# 
   147  000E                     	;# 
   148  000E                     	;# 
   149  000F                     	;# 
   150  0010                     	;# 
   151  0011                     	;# 
   152  0012                     	;# 
   153  0013                     	;# 
   154  0014                     	;# 
   155  0015                     	;# 
   156  0015                     	;# 
   157  0016                     	;# 
   158  0017                     	;# 
   159  0018                     	;# 
   160  0019                     	;# 
   161  001A                     	;# 
   162  001B                     	;# 
   163  001B                     	;# 
   164  001C                     	;# 
   165  001D                     	;# 
   166  001E                     	;# 
   167  001F                     	;# 
   168  0081                     	;# 
   169  0085                     	;# 
   170  0086                     	;# 
   171  0087                     	;# 
   172  0088                     	;# 
   173  0089                     	;# 
   174  008C                     	;# 
   175  008D                     	;# 
   176  008E                     	;# 
   177  008F                     	;# 
   178  0090                     	;# 
   179  0091                     	;# 
   180  0092                     	;# 
   181  0093                     	;# 
   182  0093                     	;# 
   183  0093                     	;# 
   184  0094                     	;# 
   185  0095                     	;# 
   186  0096                     	;# 
   187  0097                     	;# 
   188  0098                     	;# 
   189  0099                     	;# 
   190  009A                     	;# 
   191  009B                     	;# 
   192  009C                     	;# 
   193  009D                     	;# 
   194  009E                     	;# 
   195  009F                     	;# 
   196  0105                     	;# 
   197  0107                     	;# 
   198  0108                     	;# 
   199  0109                     	;# 
   200  010C                     	;# 
   201  010C                     	;# 
   202  010D                     	;# 
   203  010E                     	;# 
   204  010F                     	;# 
   205  0185                     	;# 
   206  0187                     	;# 
   207  0188                     	;# 
   208  0189                     	;# 
   209  018C                     	;# 
   210  018D                     	;# 
   211  0000                     	;# 
   212  0001                     	;# 
   213  0002                     	;# 
   214  0003                     	;# 
   215  0004                     	;# 
   216  0005                     	;# 
   217  0006                     	;# 
   218  0007                     	;# 
   219  0008                     	;# 
   220  0009                     	;# 
   221  000A                     	;# 
   222  000B                     	;# 
   223  000C                     	;# 
   224  000D                     	;# 
   225  000E                     	;# 
   226  000E                     	;# 
   227  000F                     	;# 
   228  0010                     	;# 
   229  0011                     	;# 
   230  0012                     	;# 
   231  0013                     	;# 
   232  0014                     	;# 
   233  0015                     	;# 
   234  0015                     	;# 
   235  0016                     	;# 
   236  0017                     	;# 
   237  0018                     	;# 
   238  0019                     	;# 
   239  001A                     	;# 
   240  001B                     	;# 
   241  001B                     	;# 
   242  001C                     	;# 
   243  001D                     	;# 
   244  001E                     	;# 
   245  001F                     	;# 
   246  0081                     	;# 
   247  0085                     	;# 
   248  0086                     	;# 
   249  0087                     	;# 
   250  0088                     	;# 
   251  0089                     	;# 
   252  008C                     	;# 
   253  008D                     	;# 
   254  008E                     	;# 
   255  008F                     	;# 
   256  0090                     	;# 
   257  0091                     	;# 
   258  0092                     	;# 
   259  0093                     	;# 
   260  0093                     	;# 
   261  0093                     	;# 
   262  0094                     	;# 
   263  0095                     	;# 
   264  0096                     	;# 
   265  0097                     	;# 
   266  0098                     	;# 
   267  0099                     	;# 
   268  009A                     	;# 
   269  009B                     	;# 
   270  009C                     	;# 
   271  009D                     	;# 
   272  009E                     	;# 
   273  009F                     	;# 
   274  0105                     	;# 
   275  0107                     	;# 
   276  0108                     	;# 
   277  0109                     	;# 
   278  010C                     	;# 
   279  010C                     	;# 
   280  010D                     	;# 
   281  010E                     	;# 
   282  010F                     	;# 
   283  0185                     	;# 
   284  0187                     	;# 
   285  0188                     	;# 
   286  0189                     	;# 
   287  018C                     	;# 
   288  018D                     	;# 
   289  0000                     	;# 
   290  0001                     	;# 
   291  0002                     	;# 
   292  0003                     	;# 
   293  0004                     	;# 
   294  0005                     	;# 
   295  0006                     	;# 
   296  0007                     	;# 
   297  0008                     	;# 
   298  0009                     	;# 
   299  000A                     	;# 
   300  000B                     	;# 
   301  000C                     	;# 
   302  000D                     	;# 
   303  000E                     	;# 
   304  000E                     	;# 
   305  000F                     	;# 
   306  0010                     	;# 
   307  0011                     	;# 
   308  0012                     	;# 
   309  0013                     	;# 
   310  0014                     	;# 
   311  0015                     	;# 
   312  0015                     	;# 
   313  0016                     	;# 
   314  0017                     	;# 
   315  0018                     	;# 
   316  0019                     	;# 
   317  001A                     	;# 
   318  001B                     	;# 
   319  001B                     	;# 
   320  001C                     	;# 
   321  001D                     	;# 
   322  001E                     	;# 
   323  001F                     	;# 
   324  0081                     	;# 
   325  0085                     	;# 
   326  0086                     	;# 
   327  0087                     	;# 
   328  0088                     	;# 
   329  0089                     	;# 
   330  008C                     	;# 
   331  008D                     	;# 
   332  008E                     	;# 
   333  008F                     	;# 
   334  0090                     	;# 
   335  0091                     	;# 
   336  0092                     	;# 
   337  0093                     	;# 
   338  0093                     	;# 
   339  0093                     	;# 
   340  0094                     	;# 
   341  0095                     	;# 
   342  0096                     	;# 
   343  0097                     	;# 
   344  0098                     	;# 
   345  0099                     	;# 
   346  009A                     	;# 
   347  009B                     	;# 
   348  009C                     	;# 
   349  009D                     	;# 
   350  009E                     	;# 
   351  009F                     	;# 
   352  0105                     	;# 
   353  0107                     	;# 
   354  0108                     	;# 
   355  0109                     	;# 
   356  010C                     	;# 
   357  010C                     	;# 
   358  010D                     	;# 
   359  010E                     	;# 
   360  010F                     	;# 
   361  0185                     	;# 
   362  0187                     	;# 
   363  0188                     	;# 
   364  0189                     	;# 
   365  018C                     	;# 
   366  018D                     	;# 
   367  0000                     	;# 
   368  0001                     	;# 
   369  0002                     	;# 
   370  0003                     	;# 
   371  0004                     	;# 
   372  0005                     	;# 
   373  0006                     	;# 
   374  0007                     	;# 
   375  0008                     	;# 
   376  0009                     	;# 
   377  000A                     	;# 
   378  000B                     	;# 
   379  000C                     	;# 
   380  000D                     	;# 
   381  000E                     	;# 
   382  000E                     	;# 
   383  000F                     	;# 
   384  0010                     	;# 
   385  0011                     	;# 
   386  0012                     	;# 
   387  0013                     	;# 
   388  0014                     	;# 
   389  0015                     	;# 
   390  0015                     	;# 
   391  0016                     	;# 
   392  0017                     	;# 
   393  0018                     	;# 
   394  0019                     	;# 
   395  001A                     	;# 
   396  001B                     	;# 
   397  001B                     	;# 
   398  001C                     	;# 
   399  001D                     	;# 
   400  001E                     	;# 
   401  001F                     	;# 
   402  0081                     	;# 
   403  0085                     	;# 
   404  0086                     	;# 
   405  0087                     	;# 
   406  0088                     	;# 
   407  0089                     	;# 
   408  008C                     	;# 
   409  008D                     	;# 
   410  008E                     	;# 
   411  008F                     	;# 
   412  0090                     	;# 
   413  0091                     	;# 
   414  0092                     	;# 
   415  0093                     	;# 
   416  0093                     	;# 
   417  0093                     	;# 
   418  0094                     	;# 
   419  0095                     	;# 
   420  0096                     	;# 
   421  0097                     	;# 
   422  0098                     	;# 
   423  0099                     	;# 
   424  009A                     	;# 
   425  009B                     	;# 
   426  009C                     	;# 
   427  009D                     	;# 
   428  009E                     	;# 
   429  009F                     	;# 
   430  0105                     	;# 
   431  0107                     	;# 
   432  0108                     	;# 
   433  0109                     	;# 
   434  010C                     	;# 
   435  010C                     	;# 
   436  010D                     	;# 
   437  010E                     	;# 
   438  010F                     	;# 
   439  0185                     	;# 
   440  0187                     	;# 
   441  0188                     	;# 
   442  0189                     	;# 
   443  018C                     	;# 
   444  018D                     	;# 
   445  000B                     _INTCON	set	11
   446  0008                     _PORTD	set	8
   447  0007                     _PORTC	set	7
   448  0006                     _PORTB	set	6
   449  0005                     _PORTA	set	5
   450  0001                     _TMR0	set	1
   451  001E                     _ADRESH	set	30
   452  0013                     _SSPBUF	set	19
   453  0014                     _SSPCON	set	20
   454  001F                     _ADCON0bits	set	31
   455  005A                     _TMR0IF	set	90
   456  0066                     _ADIF	set	102
   457  0081                     _OPTION_REG	set	129
   458  0088                     _TRISD	set	136
   459  0087                     _TRISC	set	135
   460  0086                     _TRISB	set	134
   461  0085                     _TRISA	set	133
   462  0094                     _SSPSTATbits	set	148
   463  0094                     _SSPSTAT	set	148
   464  008F                     _OSCCONbits	set	143
   465  009F                     _ADCON1bits	set	159
   466  043B                     _TRISC3	set	1083
   467  043D                     _TRISC5	set	1085
   468  0189                     _ANSELH	set	393
   469  0188                     _ANSEL	set	392
   470                           
   471                           ; #config settings
   472  0000                     
   473                           	psect	cinit
   474  0011                     start_initialization:	
   475  0011                     __initialization:	
   476                           
   477                           ; Clear objects allocated to COMMON
   478  0011  01F7               	clrf	__pbssCOMMON& (0+127)
   479                           
   480                           ; Clear objects allocated to BANK0
   481  0012  1283               	bcf	3,5	;RP0=0, select bank0
   482  0013  1303               	bcf	3,6	;RP1=0, select bank0
   483  0014  01A6               	clrf	__pbssBANK0& (0+127)
   484  0015  01A7               	clrf	(__pbssBANK0+1)& (0+127)
   485  0016                     end_of_initialization:	
   486                           ;End of C runtime variable initialization code
   487                           
   488  0016                     __end_of__initialization:	
   489  0016  0183               	clrf	3
   490  0017  120A  118A  28BC   	ljmp	_main	;jump to C main() function
   491                           
   492                           	psect	bssCOMMON
   493  0077                     __pbssCOMMON:	
   494  0077                     _CONT:	
   495  0077                     	ds	1
   496                           
   497                           	psect	bssBANK0
   498  0026                     __pbssBANK0:	
   499  0026                     _ADC_CH2_BIN:	
   500  0026                     	ds	1
   501  0027                     _ADC_CH1_BIN:	
   502  0027                     	ds	1
   503                           
   504                           	psect	cstackCOMMON
   505  0070                     __pcstackCOMMON:	
   506  0070                     ?_init:	
   507  0070                     ?_initTMR0:	
   508                           ; 1 bytes @ 0x0
   509                           
   510  0070                     ?_initADC:	
   511                           ; 1 bytes @ 0x0
   512                           
   513  0070                     ?_channel:	
   514                           ; 1 bytes @ 0x0
   515                           
   516  0070                     ??_channel:	
   517                           ; 1 bytes @ 0x0
   518                           
   519  0070                     ?_initOsc:	
   520                           ; 1 bytes @ 0x0
   521                           
   522  0070                     ?_spiWrite:	
   523                           ; 1 bytes @ 0x0
   524                           
   525  0070                     ?_isr:	
   526                           ; 1 bytes @ 0x0
   527                           
   528  0070                     ?_main:	
   529                           ; 1 bytes @ 0x0
   530                           
   531                           
   532                           ; 1 bytes @ 0x0
   533  0070                     	ds	2
   534  0072                     channel@ch:	
   535                           
   536                           ; 1 bytes @ 0x2
   537  0072                     	ds	1
   538  0073                     ??_isr:	
   539                           
   540                           ; 1 bytes @ 0x3
   541  0073                     	ds	4
   542                           
   543                           	psect	cstackBANK0
   544  0020                     __pcstackBANK0:	
   545  0020                     ??_initTMR0:	
   546  0020                     ??_initADC:	
   547                           ; 1 bytes @ 0x0
   548                           
   549  0020                     ??_initOsc:	
   550                           ; 1 bytes @ 0x0
   551                           
   552  0020                     ?_spiInit:	
   553                           ; 1 bytes @ 0x0
   554                           
   555  0020                     ??_spiWrite:	
   556                           ; 1 bytes @ 0x0
   557                           
   558  0020                     spiInit@sDataSample:	
   559                           ; 1 bytes @ 0x0
   560                           
   561  0020                     spiWrite@dat:	
   562                           ; 1 bytes @ 0x0
   563                           
   564                           
   565                           ; 1 bytes @ 0x0
   566  0020                     	ds	1
   567  0021                     spiInit@sClockIdle:	
   568                           
   569                           ; 1 bytes @ 0x1
   570  0021                     	ds	1
   571  0022                     initOsc@frec:	
   572  0022                     spiInit@sTransmitEdge:	
   573                           ; 1 bytes @ 0x2
   574                           
   575                           
   576                           ; 1 bytes @ 0x2
   577  0022                     	ds	1
   578  0023                     ??_spiInit:	
   579  0023                     spiInit@sType:	
   580                           ; 1 bytes @ 0x3
   581                           
   582                           
   583                           ; 1 bytes @ 0x3
   584  0023                     	ds	1
   585  0024                     ??_init:	
   586  0024                     ??_main:	
   587                           ; 1 bytes @ 0x4
   588                           
   589                           
   590                           ; 1 bytes @ 0x4
   591  0024                     	ds	2
   592                           
   593                           	psect	maintext
   594  00BC                     __pmaintext:	
   595 ;;
   596 ;;Main: autosize = 0, tempsize = 2, incstack = 0, save=0
   597 ;;
   598 ;; *************** function _main *****************
   599 ;; Defined at:
   600 ;;		line 80 in file "../Laboratorio_4.X/Slave_Lab_4.c"
   601 ;; Parameters:    Size  Location     Type
   602 ;;		None
   603 ;; Auto vars:     Size  Location     Type
   604 ;;		None
   605 ;; Return value:  Size  Location     Type
   606 ;;                  1    wreg      void 
   607 ;; Registers used:
   608 ;;		wreg, fsr0l, fsr0h, status,2, status,0, pclath, cstack
   609 ;; Tracked objects:
   610 ;;		On entry : B00/0
   611 ;;		On exit  : 0/0
   612 ;;		Unchanged: 0/0
   613 ;; Data sizes:     COMMON   BANK0   BANK1   BANK3   BANK2
   614 ;;      Params:         0       0       0       0       0
   615 ;;      Locals:         0       0       0       0       0
   616 ;;      Temps:          0       2       0       0       0
   617 ;;      Totals:         0       2       0       0       0
   618 ;;Total ram usage:        2 bytes
   619 ;; Hardware stack levels required when called:    4
   620 ;; This function calls:
   621 ;;		_init
   622 ;;		_initADC
   623 ;;		_initOsc
   624 ;;		_initTMR0
   625 ;;		_spiWrite
   626 ;; This function is called by:
   627 ;;		Startup code after reset
   628 ;; This function uses a non-reentrant model
   629 ;;
   630                           
   631                           
   632                           ;psect for function _main
   633  00BC                     _main:	
   634  00BC                     l1076:	
   635                           ;incstack = 0
   636                           ; Regs used in _main: [wreg-fsr0h+status,2+status,0+pclath+cstack]
   637                           
   638                           
   639                           ;../Laboratorio_4.X/Slave_Lab_4.c: 81:     initOsc(7);
   640  00BC  3007               	movlw	7
   641  00BD  120A  118A  201A  120A  118A  	fcall	_initOsc
   642  00C2                     l1078:	
   643                           
   644                           ;../Laboratorio_4.X/Slave_Lab_4.c: 82:     init();
   645  00C2  120A  118A  2135  120A  118A  	fcall	_init
   646  00C7                     l1080:	
   647                           
   648                           ;../Laboratorio_4.X/Slave_Lab_4.c: 83:     initADC();
   649  00C7  120A  118A  214F  120A  118A  	fcall	_initADC
   650  00CC                     l1082:	
   651                           
   652                           ;../Laboratorio_4.X/Slave_Lab_4.c: 84:     initTMR0();
   653  00CC  120A  118A  215C  120A  118A  	fcall	_initTMR0
   654  00D1                     l1084:	
   655                           
   656                           ;../Laboratorio_4.X/Slave_Lab_4.c: 86:     PORTA = 0;
   657  00D1  1283               	bcf	3,5	;RP0=0, select bank0
   658  00D2  1303               	bcf	3,6	;RP1=0, select bank0
   659  00D3  0185               	clrf	5	;volatile
   660  00D4                     l1086:	
   661                           
   662                           ;../Laboratorio_4.X/Slave_Lab_4.c: 87:     PORTB = 0;
   663  00D4  0186               	clrf	6	;volatile
   664  00D5                     l1088:	
   665                           
   666                           ;../Laboratorio_4.X/Slave_Lab_4.c: 88:     PORTC = 0;
   667  00D5  0187               	clrf	7	;volatile
   668  00D6                     l1090:	
   669                           
   670                           ;../Laboratorio_4.X/Slave_Lab_4.c: 89:     PORTD = 0;
   671  00D6  0188               	clrf	8	;volatile
   672  00D7                     l1092:	
   673                           
   674                           ;../Laboratorio_4.X/Slave_Lab_4.c: 92:         ADCON0bits.GO_nDONE = 1;
   675  00D7  1283               	bcf	3,5	;RP0=0, select bank0
   676  00D8  1303               	bcf	3,6	;RP1=0, select bank0
   677  00D9  149F               	bsf	31,1	;volatile
   678  00DA                     l1094:	
   679                           
   680                           ;../Laboratorio_4.X/Slave_Lab_4.c: 96:         spiWrite(ADC_CH1_BIN);
   681  00DA  0827               	movf	_ADC_CH1_BIN,w
   682  00DB  120A  118A  2165  120A  118A  	fcall	_spiWrite
   683  00E0                     l1096:	
   684                           
   685                           ;../Laboratorio_4.X/Slave_Lab_4.c: 97:         _delay((unsigned long)((5)*(8000000/4000.
      +                          0)));
   686  00E0  300D               	movlw	13
   687  00E1  1283               	bcf	3,5	;RP0=0, select bank0
   688  00E2  1303               	bcf	3,6	;RP1=0, select bank0
   689  00E3  00A5               	movwf	??_main+1
   690  00E4  30FB               	movlw	251
   691  00E5  00A4               	movwf	??_main
   692  00E6                     u157:	
   693  00E6  0BA4               	decfsz	??_main,f
   694  00E7  28E6               	goto	u157
   695  00E8  0BA5               	decfsz	??_main+1,f
   696  00E9  28E6               	goto	u157
   697  00EA                     l1098:	
   698                           
   699                           ;../Laboratorio_4.X/Slave_Lab_4.c: 98:         spiWrite(ADC_CH2_BIN);
   700  00EA  1283               	bcf	3,5	;RP0=0, select bank0
   701  00EB  1303               	bcf	3,6	;RP1=0, select bank0
   702  00EC  0826               	movf	_ADC_CH2_BIN,w
   703  00ED  120A  118A  2165  120A  118A  	fcall	_spiWrite
   704  00F2  28D7               	goto	l1092
   705  00F3  120A  118A  280E   	ljmp	start
   706  00F6                     __end_of_main:	
   707                           
   708                           	psect	text1
   709  0165                     __ptext1:	
   710 ;; *************** function _spiWrite *****************
   711 ;; Defined at:
   712 ;;		line 32 in file "../Laboratorio_4.X/SPI.c"
   713 ;; Parameters:    Size  Location     Type
   714 ;;  dat             1    wreg     unsigned char 
   715 ;; Auto vars:     Size  Location     Type
   716 ;;  dat             1    0[BANK0 ] unsigned char 
   717 ;; Return value:  Size  Location     Type
   718 ;;                  1    wreg      void 
   719 ;; Registers used:
   720 ;;		wreg
   721 ;; Tracked objects:
   722 ;;		On entry : 0/0
   723 ;;		On exit  : 0/0
   724 ;;		Unchanged: 0/0
   725 ;; Data sizes:     COMMON   BANK0   BANK1   BANK3   BANK2
   726 ;;      Params:         0       0       0       0       0
   727 ;;      Locals:         0       1       0       0       0
   728 ;;      Temps:          0       0       0       0       0
   729 ;;      Totals:         0       1       0       0       0
   730 ;;Total ram usage:        1 bytes
   731 ;; Hardware stack levels used:    1
   732 ;; Hardware stack levels required when called:    2
   733 ;; This function calls:
   734 ;;		Nothing
   735 ;; This function is called by:
   736 ;;		_main
   737 ;; This function uses a non-reentrant model
   738 ;;
   739                           
   740                           
   741                           ;psect for function _spiWrite
   742  0165                     _spiWrite:	
   743                           
   744                           ;incstack = 0
   745                           ; Regs used in _spiWrite: [wreg]
   746                           ;spiWrite@dat stored from wreg
   747  0165  1283               	bcf	3,5	;RP0=0, select bank0
   748  0166  1303               	bcf	3,6	;RP1=0, select bank0
   749  0167  00A0               	movwf	spiWrite@dat
   750  0168                     l1058:	
   751                           
   752                           ;../Laboratorio_4.X/SPI.c: 32: void spiWrite(char dat);../Laboratorio_4.X/SPI.c: 33: {;.
      +                          ./Laboratorio_4.X/SPI.c: 34:     SSPBUF = dat;
   753  0168  0820               	movf	spiWrite@dat,w
   754  0169  0093               	movwf	19	;volatile
   755  016A                     l56:	
   756  016A  0008               	return
   757  016B                     __end_of_spiWrite:	
   758                           
   759                           	psect	text2
   760  015C                     __ptext2:	
   761 ;; *************** function _initTMR0 *****************
   762 ;; Defined at:
   763 ;;		line 124 in file "../Laboratorio_4.X/Slave_Lab_4.c"
   764 ;; Parameters:    Size  Location     Type
   765 ;;		None
   766 ;; Auto vars:     Size  Location     Type
   767 ;;		None
   768 ;; Return value:  Size  Location     Type
   769 ;;                  1    wreg      void 
   770 ;; Registers used:
   771 ;;		wreg
   772 ;; Tracked objects:
   773 ;;		On entry : 0/0
   774 ;;		On exit  : 0/0
   775 ;;		Unchanged: 0/0
   776 ;; Data sizes:     COMMON   BANK0   BANK1   BANK3   BANK2
   777 ;;      Params:         0       0       0       0       0
   778 ;;      Locals:         0       0       0       0       0
   779 ;;      Temps:          0       0       0       0       0
   780 ;;      Totals:         0       0       0       0       0
   781 ;;Total ram usage:        0 bytes
   782 ;; Hardware stack levels used:    1
   783 ;; Hardware stack levels required when called:    2
   784 ;; This function calls:
   785 ;;		Nothing
   786 ;; This function is called by:
   787 ;;		_main
   788 ;; This function uses a non-reentrant model
   789 ;;
   790                           
   791                           
   792                           ;psect for function _initTMR0
   793  015C                     _initTMR0:	
   794  015C                     l1074:	
   795                           ;incstack = 0
   796                           ; Regs used in _initTMR0: [wreg]
   797                           
   798                           
   799                           ;../Laboratorio_4.X/Slave_Lab_4.c: 125:     OPTION_REG = 0x84;
   800  015C  3084               	movlw	132
   801  015D  1683               	bsf	3,5	;RP0=1, select bank1
   802  015E  1303               	bcf	3,6	;RP1=0, select bank1
   803  015F  0081               	movwf	1	;volatile
   804                           
   805                           ;../Laboratorio_4.X/Slave_Lab_4.c: 126:     TMR0 = 68;
   806  0160  3044               	movlw	68
   807  0161  1283               	bcf	3,5	;RP0=0, select bank0
   808  0162  1303               	bcf	3,6	;RP1=0, select bank0
   809  0163  0081               	movwf	1	;volatile
   810  0164                     l144:	
   811  0164  0008               	return
   812  0165                     __end_of_initTMR0:	
   813                           
   814                           	psect	text3
   815  001A                     __ptext3:	
   816 ;; *************** function _initOsc *****************
   817 ;; Defined at:
   818 ;;		line 8 in file "../Laboratorio_4.X/Oscilador.c"
   819 ;; Parameters:    Size  Location     Type
   820 ;;  frec            1    wreg     unsigned char 
   821 ;; Auto vars:     Size  Location     Type
   822 ;;  frec            1    2[BANK0 ] unsigned char 
   823 ;; Return value:  Size  Location     Type
   824 ;;                  1    wreg      void 
   825 ;; Registers used:
   826 ;;		wreg, fsr0l, fsr0h, status,2, status,0
   827 ;; Tracked objects:
   828 ;;		On entry : 0/0
   829 ;;		On exit  : 0/0
   830 ;;		Unchanged: 0/0
   831 ;; Data sizes:     COMMON   BANK0   BANK1   BANK3   BANK2
   832 ;;      Params:         0       0       0       0       0
   833 ;;      Locals:         0       1       0       0       0
   834 ;;      Temps:          0       2       0       0       0
   835 ;;      Totals:         0       3       0       0       0
   836 ;;Total ram usage:        3 bytes
   837 ;; Hardware stack levels used:    1
   838 ;; Hardware stack levels required when called:    2
   839 ;; This function calls:
   840 ;;		Nothing
   841 ;; This function is called by:
   842 ;;		_main
   843 ;; This function uses a non-reentrant model
   844 ;;
   845                           
   846                           
   847                           ;psect for function _initOsc
   848  001A                     _initOsc:	
   849                           
   850                           ;incstack = 0
   851                           ; Regs used in _initOsc: [wreg-fsr0h+status,2+status,0]
   852                           ;initOsc@frec stored from wreg
   853  001A  1283               	bcf	3,5	;RP0=0, select bank0
   854  001B  1303               	bcf	3,6	;RP1=0, select bank0
   855  001C  00A2               	movwf	initOsc@frec
   856  001D                     l914:	
   857                           
   858                           ;../Laboratorio_4.X/Oscilador.c: 9:     switch(frec){
   859  001D  2854               	goto	l918
   860  001E                     l20:	
   861                           ;../Laboratorio_4.X/Oscilador.c: 10:         case 0:
   862                           
   863                           
   864                           ;../Laboratorio_4.X/Oscilador.c: 11:             OSCCONbits.IRCF0 = 0;
   865  001E  1683               	bsf	3,5	;RP0=1, select bank1
   866  001F  1303               	bcf	3,6	;RP1=0, select bank1
   867  0020  120F               	bcf	15,4	;volatile
   868                           
   869                           ;../Laboratorio_4.X/Oscilador.c: 12:             OSCCONbits.IRCF1 = 0;
   870  0021  128F               	bcf	15,5	;volatile
   871                           
   872                           ;../Laboratorio_4.X/Oscilador.c: 13:             OSCCONbits.IRCF2 = 0;
   873  0022  130F               	bcf	15,6	;volatile
   874                           
   875                           ;../Laboratorio_4.X/Oscilador.c: 14:             break;
   876  0023  2876               	goto	l21
   877  0024                     l22:	
   878                           ;../Laboratorio_4.X/Oscilador.c: 15:         case 1:
   879                           
   880                           
   881                           ;../Laboratorio_4.X/Oscilador.c: 16:             OSCCONbits.IRCF0 = 1;
   882  0024  1683               	bsf	3,5	;RP0=1, select bank1
   883  0025  1303               	bcf	3,6	;RP1=0, select bank1
   884  0026  160F               	bsf	15,4	;volatile
   885                           
   886                           ;../Laboratorio_4.X/Oscilador.c: 17:             OSCCONbits.IRCF1 = 0;
   887  0027  128F               	bcf	15,5	;volatile
   888                           
   889                           ;../Laboratorio_4.X/Oscilador.c: 18:             OSCCONbits.IRCF2 = 0;
   890  0028  130F               	bcf	15,6	;volatile
   891                           
   892                           ;../Laboratorio_4.X/Oscilador.c: 19:             break;
   893  0029  2876               	goto	l21
   894  002A                     l23:	
   895                           ;../Laboratorio_4.X/Oscilador.c: 20:         case 2:
   896                           
   897                           
   898                           ;../Laboratorio_4.X/Oscilador.c: 21:             OSCCONbits.IRCF0 = 0;
   899  002A  1683               	bsf	3,5	;RP0=1, select bank1
   900  002B  1303               	bcf	3,6	;RP1=0, select bank1
   901  002C  120F               	bcf	15,4	;volatile
   902                           
   903                           ;../Laboratorio_4.X/Oscilador.c: 22:             OSCCONbits.IRCF1 = 1;
   904  002D  168F               	bsf	15,5	;volatile
   905                           
   906                           ;../Laboratorio_4.X/Oscilador.c: 23:             OSCCONbits.IRCF2 = 0;
   907  002E  130F               	bcf	15,6	;volatile
   908                           
   909                           ;../Laboratorio_4.X/Oscilador.c: 24:             break;
   910  002F  2876               	goto	l21
   911  0030                     l24:	
   912                           ;../Laboratorio_4.X/Oscilador.c: 25:         case 3:
   913                           
   914                           
   915                           ;../Laboratorio_4.X/Oscilador.c: 26:             OSCCONbits.IRCF0 = 1;
   916  0030  1683               	bsf	3,5	;RP0=1, select bank1
   917  0031  1303               	bcf	3,6	;RP1=0, select bank1
   918  0032  160F               	bsf	15,4	;volatile
   919                           
   920                           ;../Laboratorio_4.X/Oscilador.c: 27:             OSCCONbits.IRCF1 = 1;
   921  0033  168F               	bsf	15,5	;volatile
   922                           
   923                           ;../Laboratorio_4.X/Oscilador.c: 28:             OSCCONbits.IRCF2 = 0;
   924  0034  130F               	bcf	15,6	;volatile
   925                           
   926                           ;../Laboratorio_4.X/Oscilador.c: 29:             break;
   927  0035  2876               	goto	l21
   928  0036                     l25:	
   929                           ;../Laboratorio_4.X/Oscilador.c: 30:         case 4:
   930                           
   931                           
   932                           ;../Laboratorio_4.X/Oscilador.c: 31:             OSCCONbits.IRCF0 = 0;
   933  0036  1683               	bsf	3,5	;RP0=1, select bank1
   934  0037  1303               	bcf	3,6	;RP1=0, select bank1
   935  0038  120F               	bcf	15,4	;volatile
   936                           
   937                           ;../Laboratorio_4.X/Oscilador.c: 32:             OSCCONbits.IRCF1 = 0;
   938  0039  128F               	bcf	15,5	;volatile
   939                           
   940                           ;../Laboratorio_4.X/Oscilador.c: 33:             OSCCONbits.IRCF2 = 1;
   941  003A  170F               	bsf	15,6	;volatile
   942                           
   943                           ;../Laboratorio_4.X/Oscilador.c: 34:             break;
   944  003B  2876               	goto	l21
   945  003C                     l26:	
   946                           ;../Laboratorio_4.X/Oscilador.c: 35:         case 5:
   947                           
   948                           
   949                           ;../Laboratorio_4.X/Oscilador.c: 36:             OSCCONbits.IRCF0 = 1;
   950  003C  1683               	bsf	3,5	;RP0=1, select bank1
   951  003D  1303               	bcf	3,6	;RP1=0, select bank1
   952  003E  160F               	bsf	15,4	;volatile
   953                           
   954                           ;../Laboratorio_4.X/Oscilador.c: 37:             OSCCONbits.IRCF1 = 0;
   955  003F  128F               	bcf	15,5	;volatile
   956                           
   957                           ;../Laboratorio_4.X/Oscilador.c: 38:             OSCCONbits.IRCF2 = 1;
   958  0040  170F               	bsf	15,6	;volatile
   959                           
   960                           ;../Laboratorio_4.X/Oscilador.c: 39:             break;
   961  0041  2876               	goto	l21
   962  0042                     l27:	
   963                           ;../Laboratorio_4.X/Oscilador.c: 40:         case 6:
   964                           
   965                           
   966                           ;../Laboratorio_4.X/Oscilador.c: 41:             OSCCONbits.IRCF0 = 0;
   967  0042  1683               	bsf	3,5	;RP0=1, select bank1
   968  0043  1303               	bcf	3,6	;RP1=0, select bank1
   969  0044  120F               	bcf	15,4	;volatile
   970                           
   971                           ;../Laboratorio_4.X/Oscilador.c: 42:             OSCCONbits.IRCF1 = 1;
   972  0045  168F               	bsf	15,5	;volatile
   973                           
   974                           ;../Laboratorio_4.X/Oscilador.c: 43:             OSCCONbits.IRCF2 = 1;
   975  0046  170F               	bsf	15,6	;volatile
   976                           
   977                           ;../Laboratorio_4.X/Oscilador.c: 44:             break;
   978  0047  2876               	goto	l21
   979  0048                     l28:	
   980                           ;../Laboratorio_4.X/Oscilador.c: 45:         case 7:
   981                           
   982                           
   983                           ;../Laboratorio_4.X/Oscilador.c: 46:             OSCCONbits.IRCF0 = 1;
   984  0048  1683               	bsf	3,5	;RP0=1, select bank1
   985  0049  1303               	bcf	3,6	;RP1=0, select bank1
   986  004A  160F               	bsf	15,4	;volatile
   987                           
   988                           ;../Laboratorio_4.X/Oscilador.c: 47:             OSCCONbits.IRCF1 = 1;
   989  004B  168F               	bsf	15,5	;volatile
   990                           
   991                           ;../Laboratorio_4.X/Oscilador.c: 48:             OSCCONbits.IRCF2 = 1;
   992  004C  170F               	bsf	15,6	;volatile
   993                           
   994                           ;../Laboratorio_4.X/Oscilador.c: 49:             break;
   995  004D  2876               	goto	l21
   996  004E                     l29:	
   997                           ;../Laboratorio_4.X/Oscilador.c: 50:         default:
   998                           
   999                           
  1000                           ;../Laboratorio_4.X/Oscilador.c: 51:             OSCCONbits.IRCF0 = 0;
  1001  004E  1683               	bsf	3,5	;RP0=1, select bank1
  1002  004F  1303               	bcf	3,6	;RP1=0, select bank1
  1003  0050  120F               	bcf	15,4	;volatile
  1004                           
  1005                           ;../Laboratorio_4.X/Oscilador.c: 52:             OSCCONbits.IRCF1 = 1;
  1006  0051  168F               	bsf	15,5	;volatile
  1007                           
  1008                           ;../Laboratorio_4.X/Oscilador.c: 53:             OSCCONbits.IRCF2 = 1;
  1009  0052  170F               	bsf	15,6	;volatile
  1010                           
  1011                           ;../Laboratorio_4.X/Oscilador.c: 54:             break;
  1012  0053  2876               	goto	l21
  1013  0054                     l918:	
  1014  0054  0822               	movf	initOsc@frec,w
  1015  0055  00A0               	movwf	??_initOsc
  1016  0056  01A1               	clrf	??_initOsc+1
  1017                           
  1018                           ; Switch on 2 bytes has been partitioned into a top level switch of size 1, and 1 sub-sw
      +                          itches
  1019                           ; Switch size 1, requested type "simple"
  1020                           ; Number of cases is 1, Range of values is 0 to 0
  1021                           ; switch strategies available:
  1022                           ; Name         Instructions Cycles
  1023                           ; simple_byte            4     3 (average)
  1024                           ; direct_byte           11     8 (fixed)
  1025                           ; jumptable            260     6 (fixed)
  1026                           ;	Chosen strategy is simple_byte
  1027  0057  0821               	movf	??_initOsc+1,w
  1028  0058  3A00               	xorlw	0	; case 0
  1029  0059  1903               	skipnz
  1030  005A  285C               	goto	l1150
  1031  005B  284E               	goto	l29
  1032  005C                     l1150:	
  1033                           
  1034                           ; Switch size 1, requested type "simple"
  1035                           ; Number of cases is 8, Range of values is 0 to 7
  1036                           ; switch strategies available:
  1037                           ; Name         Instructions Cycles
  1038                           ; simple_byte           25    13 (average)
  1039                           ; direct_byte           32     8 (fixed)
  1040                           ; jumptable            260     6 (fixed)
  1041                           ;	Chosen strategy is simple_byte
  1042  005C  0820               	movf	??_initOsc,w
  1043  005D  3A00               	xorlw	0	; case 0
  1044  005E  1903               	skipnz
  1045  005F  281E               	goto	l20
  1046  0060  3A01               	xorlw	1	; case 1
  1047  0061  1903               	skipnz
  1048  0062  2824               	goto	l22
  1049  0063  3A03               	xorlw	3	; case 2
  1050  0064  1903               	skipnz
  1051  0065  282A               	goto	l23
  1052  0066  3A01               	xorlw	1	; case 3
  1053  0067  1903               	skipnz
  1054  0068  2830               	goto	l24
  1055  0069  3A07               	xorlw	7	; case 4
  1056  006A  1903               	skipnz
  1057  006B  2836               	goto	l25
  1058  006C  3A01               	xorlw	1	; case 5
  1059  006D  1903               	skipnz
  1060  006E  283C               	goto	l26
  1061  006F  3A03               	xorlw	3	; case 6
  1062  0070  1903               	skipnz
  1063  0071  2842               	goto	l27
  1064  0072  3A01               	xorlw	1	; case 7
  1065  0073  1903               	skipnz
  1066  0074  2848               	goto	l28
  1067  0075  284E               	goto	l29
  1068  0076                     l21:	
  1069                           
  1070                           ;../Laboratorio_4.X/Oscilador.c: 57:     OSCCONbits.SCS = 1;
  1071  0076  140F               	bsf	15,0	;volatile
  1072  0077                     l30:	
  1073  0077  0008               	return
  1074  0078                     __end_of_initOsc:	
  1075                           
  1076                           	psect	text4
  1077  014F                     __ptext4:	
  1078 ;; *************** function _initADC *****************
  1079 ;; Defined at:
  1080 ;;		line 15 in file "../Laboratorio_4.X/ADC.c"
  1081 ;; Parameters:    Size  Location     Type
  1082 ;;		None
  1083 ;; Auto vars:     Size  Location     Type
  1084 ;;		None
  1085 ;; Return value:  Size  Location     Type
  1086 ;;                  1    wreg      void 
  1087 ;; Registers used:
  1088 ;;		None
  1089 ;; Tracked objects:
  1090 ;;		On entry : 0/0
  1091 ;;		On exit  : 0/0
  1092 ;;		Unchanged: 0/0
  1093 ;; Data sizes:     COMMON   BANK0   BANK1   BANK3   BANK2
  1094 ;;      Params:         0       0       0       0       0
  1095 ;;      Locals:         0       0       0       0       0
  1096 ;;      Temps:          0       0       0       0       0
  1097 ;;      Totals:         0       0       0       0       0
  1098 ;;Total ram usage:        0 bytes
  1099 ;; Hardware stack levels used:    1
  1100 ;; Hardware stack levels required when called:    2
  1101 ;; This function calls:
  1102 ;;		Nothing
  1103 ;; This function is called by:
  1104 ;;		_main
  1105 ;; This function uses a non-reentrant model
  1106 ;;
  1107                           
  1108                           
  1109                           ;psect for function _initADC
  1110  014F                     _initADC:	
  1111  014F                     l1056:	
  1112                           ;incstack = 0
  1113                           ; Regs used in _initADC: []
  1114                           
  1115                           
  1116                           ;../Laboratorio_4.X/ADC.c: 17:     ADCON0bits.ADCS0 = 1;
  1117  014F  1283               	bcf	3,5	;RP0=0, select bank0
  1118  0150  1303               	bcf	3,6	;RP1=0, select bank0
  1119  0151  171F               	bsf	31,6	;volatile
  1120                           
  1121                           ;../Laboratorio_4.X/ADC.c: 18:     ADCON0bits.ADCS1 = 0;
  1122  0152  139F               	bcf	31,7	;volatile
  1123                           
  1124                           ;../Laboratorio_4.X/ADC.c: 20:     ADCON1bits.ADFM = 0;
  1125  0153  1683               	bsf	3,5	;RP0=1, select bank1
  1126  0154  1303               	bcf	3,6	;RP1=0, select bank1
  1127  0155  139F               	bcf	31,7	;volatile
  1128                           
  1129                           ;../Laboratorio_4.X/ADC.c: 21:     ADCON1bits.VCFG0 = 0;
  1130  0156  121F               	bcf	31,4	;volatile
  1131                           
  1132                           ;../Laboratorio_4.X/ADC.c: 22:     ADCON1bits.VCFG1 = 0;
  1133  0157  129F               	bcf	31,5	;volatile
  1134                           
  1135                           ;../Laboratorio_4.X/ADC.c: 24:     ADCON0bits.ADON = 1;
  1136  0158  1283               	bcf	3,5	;RP0=0, select bank0
  1137  0159  1303               	bcf	3,6	;RP1=0, select bank0
  1138  015A  141F               	bsf	31,0	;volatile
  1139  015B                     l7:	
  1140  015B  0008               	return
  1141  015C                     __end_of_initADC:	
  1142                           
  1143                           	psect	text5
  1144  0135                     __ptext5:	
  1145 ;; *************** function _init *****************
  1146 ;; Defined at:
  1147 ;;		line 109 in file "../Laboratorio_4.X/Slave_Lab_4.c"
  1148 ;; Parameters:    Size  Location     Type
  1149 ;;		None
  1150 ;; Auto vars:     Size  Location     Type
  1151 ;;		None
  1152 ;; Return value:  Size  Location     Type
  1153 ;;                  1    wreg      void 
  1154 ;; Registers used:
  1155 ;;		wreg, status,2, status,0, pclath, cstack
  1156 ;; Tracked objects:
  1157 ;;		On entry : 0/0
  1158 ;;		On exit  : 0/0
  1159 ;;		Unchanged: 0/0
  1160 ;; Data sizes:     COMMON   BANK0   BANK1   BANK3   BANK2
  1161 ;;      Params:         0       0       0       0       0
  1162 ;;      Locals:         0       0       0       0       0
  1163 ;;      Temps:          0       0       0       0       0
  1164 ;;      Totals:         0       0       0       0       0
  1165 ;;Total ram usage:        0 bytes
  1166 ;; Hardware stack levels used:    1
  1167 ;; Hardware stack levels required when called:    3
  1168 ;; This function calls:
  1169 ;;		_spiInit
  1170 ;; This function is called by:
  1171 ;;		_main
  1172 ;; This function uses a non-reentrant model
  1173 ;;
  1174                           
  1175                           
  1176                           ;psect for function _init
  1177  0135                     _init:	
  1178  0135                     l1060:	
  1179                           ;incstack = 0
  1180                           ; Regs used in _init: [wreg+status,2+status,0+pclath+cstack]
  1181                           
  1182                           
  1183                           ;../Laboratorio_4.X/Slave_Lab_4.c: 110:     TRISA = 0b00001001;
  1184  0135  3009               	movlw	9
  1185  0136  1683               	bsf	3,5	;RP0=1, select bank1
  1186  0137  1303               	bcf	3,6	;RP1=0, select bank1
  1187  0138  0085               	movwf	5	;volatile
  1188  0139                     l1062:	
  1189                           
  1190                           ;../Laboratorio_4.X/Slave_Lab_4.c: 111:     TRISB = 0;
  1191  0139  0186               	clrf	6	;volatile
  1192  013A                     l1064:	
  1193                           
  1194                           ;../Laboratorio_4.X/Slave_Lab_4.c: 112:     TRISC = 0;
  1195  013A  0187               	clrf	7	;volatile
  1196  013B                     l1066:	
  1197                           
  1198                           ;../Laboratorio_4.X/Slave_Lab_4.c: 113:     TRISD = 0;
  1199  013B  0188               	clrf	8	;volatile
  1200  013C                     l1068:	
  1201                           
  1202                           ;../Laboratorio_4.X/Slave_Lab_4.c: 114:     ANSEL = 0b00001001;
  1203  013C  3009               	movlw	9
  1204  013D  1683               	bsf	3,5	;RP0=1, select bank3
  1205  013E  1703               	bsf	3,6	;RP1=1, select bank3
  1206  013F  0088               	movwf	8	;volatile
  1207                           
  1208                           ;../Laboratorio_4.X/Slave_Lab_4.c: 115:     ANSELH = 0;
  1209  0140  0189               	clrf	9	;volatile
  1210  0141                     l1070:	
  1211                           
  1212                           ;../Laboratorio_4.X/Slave_Lab_4.c: 116:     INTCON = 0b11100000;
  1213  0141  30E0               	movlw	224
  1214  0142  008B               	movwf	11	;volatile
  1215  0143                     l1072:	
  1216                           
  1217                           ;../Laboratorio_4.X/Slave_Lab_4.c: 117:     spiInit(SPI_SLAVE_SS_EN, SPI_DATA_SAMPLE_MID
      +                          DLE, SPI_CLOCK_IDLE_LOW, SPI_IDLE_2_ACTIVE);
  1218  0143  1283               	bcf	3,5	;RP0=0, select bank0
  1219  0144  1303               	bcf	3,6	;RP1=0, select bank0
  1220  0145  01A0               	clrf	spiInit@sDataSample
  1221  0146  01A1               	clrf	spiInit@sClockIdle
  1222  0147  01A2               	clrf	spiInit@sTransmitEdge
  1223  0148  3024               	movlw	36
  1224  0149  120A  118A  2117  120A  118A  	fcall	_spiInit
  1225  014E                     l141:	
  1226  014E  0008               	return
  1227  014F                     __end_of_init:	
  1228                           
  1229                           	psect	text6
  1230  0117                     __ptext6:	
  1231 ;; *************** function _spiInit *****************
  1232 ;; Defined at:
  1233 ;;		line 10 in file "../Laboratorio_4.X/SPI.c"
  1234 ;; Parameters:    Size  Location     Type
  1235 ;;  sType           1    wreg     enum E1264
  1236 ;;  sDataSample     1    0[BANK0 ] enum E1272
  1237 ;;  sClockIdle      1    1[BANK0 ] enum E1276
  1238 ;;  sTransmitEdg    1    2[BANK0 ] enum E1280
  1239 ;; Auto vars:     Size  Location     Type
  1240 ;;  sType           1    3[BANK0 ] enum E1264
  1241 ;; Return value:  Size  Location     Type
  1242 ;;                  1    wreg      void 
  1243 ;; Registers used:
  1244 ;;		wreg, status,2, status,0
  1245 ;; Tracked objects:
  1246 ;;		On entry : 0/0
  1247 ;;		On exit  : 0/0
  1248 ;;		Unchanged: 0/0
  1249 ;; Data sizes:     COMMON   BANK0   BANK1   BANK3   BANK2
  1250 ;;      Params:         0       3       0       0       0
  1251 ;;      Locals:         0       1       0       0       0
  1252 ;;      Temps:          0       0       0       0       0
  1253 ;;      Totals:         0       4       0       0       0
  1254 ;;Total ram usage:        4 bytes
  1255 ;; Hardware stack levels used:    1
  1256 ;; Hardware stack levels required when called:    2
  1257 ;; This function calls:
  1258 ;;		Nothing
  1259 ;; This function is called by:
  1260 ;;		_init
  1261 ;; This function uses a non-reentrant model
  1262 ;;
  1263                           
  1264                           
  1265                           ;psect for function _spiInit
  1266  0117                     _spiInit:	
  1267                           
  1268                           ;incstack = 0
  1269                           ; Regs used in _spiInit: [wreg+status,2+status,0]
  1270                           ;spiInit@sType stored from wreg
  1271  0117  1283               	bcf	3,5	;RP0=0, select bank0
  1272  0118  1303               	bcf	3,6	;RP1=0, select bank0
  1273  0119  00A3               	movwf	spiInit@sType
  1274  011A                     l1046:	
  1275                           
  1276                           ;../Laboratorio_4.X/SPI.c: 10: void spiInit(Spi_Type sType, Spi_Data_Sample sDataSample,
      +                           Spi_Clock_Idle sClockIdle, Spi_Transmit_Edge sTransmitEdge);../Laboratorio_4.X/SPI.c: 1
      +                          1: {;../Laboratorio_4.X/SPI.c: 12:     TRISC5 = 0;
  1277  011A  1683               	bsf	3,5	;RP0=1, select bank1
  1278  011B  1303               	bcf	3,6	;RP1=0, select bank1
  1279  011C  1287               	bcf	7,5	;volatile
  1280                           
  1281                           ;../Laboratorio_4.X/SPI.c: 13:     if(sType & 0b00000100)
  1282  011D  1283               	bcf	3,5	;RP0=0, select bank0
  1283  011E  1303               	bcf	3,6	;RP1=0, select bank0
  1284  011F  1D23               	btfss	spiInit@sType,2
  1285  0120  2922               	goto	u141
  1286  0121  2923               	goto	u140
  1287  0122                     u141:	
  1288  0122  2929               	goto	l1052
  1289  0123                     u140:	
  1290  0123                     l1048:	
  1291                           
  1292                           ;../Laboratorio_4.X/SPI.c: 14:     {;../Laboratorio_4.X/SPI.c: 15:         SSPSTAT = sTr
      +                          ansmitEdge;
  1293  0123  0822               	movf	spiInit@sTransmitEdge,w
  1294  0124  1683               	bsf	3,5	;RP0=1, select bank1
  1295  0125  1303               	bcf	3,6	;RP1=0, select bank1
  1296  0126  0094               	movwf	20	;volatile
  1297  0127                     l1050:	
  1298                           
  1299                           ;../Laboratorio_4.X/SPI.c: 16:         TRISC3 = 1;
  1300  0127  1587               	bsf	7,3	;volatile
  1301                           
  1302                           ;../Laboratorio_4.X/SPI.c: 17:     }
  1303  0128  292F               	goto	l46
  1304  0129                     l1052:	
  1305                           
  1306                           ;../Laboratorio_4.X/SPI.c: 19:     {;../Laboratorio_4.X/SPI.c: 20:         SSPSTAT = sDa
      +                          taSample | sTransmitEdge;
  1307  0129  0820               	movf	spiInit@sDataSample,w
  1308  012A  0422               	iorwf	spiInit@sTransmitEdge,w
  1309  012B  1683               	bsf	3,5	;RP0=1, select bank1
  1310  012C  1303               	bcf	3,6	;RP1=0, select bank1
  1311  012D  0094               	movwf	20	;volatile
  1312  012E                     l1054:	
  1313                           
  1314                           ;../Laboratorio_4.X/SPI.c: 21:         TRISC3 = 0;
  1315  012E  1187               	bcf	7,3	;volatile
  1316  012F                     l46:	
  1317                           ;../Laboratorio_4.X/SPI.c: 22:     }
  1318                           
  1319                           
  1320                           ;../Laboratorio_4.X/SPI.c: 24:     SSPCON = sType | sClockIdle;
  1321  012F  1283               	bcf	3,5	;RP0=0, select bank0
  1322  0130  1303               	bcf	3,6	;RP1=0, select bank0
  1323  0131  0823               	movf	spiInit@sType,w
  1324  0132  0421               	iorwf	spiInit@sClockIdle,w
  1325  0133  0094               	movwf	20	;volatile
  1326  0134                     l47:	
  1327  0134  0008               	return
  1328  0135                     __end_of_spiInit:	
  1329                           
  1330                           	psect	text7
  1331  0078                     __ptext7:	
  1332 ;; *************** function _isr *****************
  1333 ;; Defined at:
  1334 ;;		line 50 in file "../Laboratorio_4.X/Slave_Lab_4.c"
  1335 ;; Parameters:    Size  Location     Type
  1336 ;;		None
  1337 ;; Auto vars:     Size  Location     Type
  1338 ;;		None
  1339 ;; Return value:  Size  Location     Type
  1340 ;;                  1    wreg      void 
  1341 ;; Registers used:
  1342 ;;		wreg, fsr0l, fsr0h, status,2, status,0, pclath, cstack
  1343 ;; Tracked objects:
  1344 ;;		On entry : 0/0
  1345 ;;		On exit  : 0/0
  1346 ;;		Unchanged: 0/0
  1347 ;; Data sizes:     COMMON   BANK0   BANK1   BANK3   BANK2
  1348 ;;      Params:         0       0       0       0       0
  1349 ;;      Locals:         0       0       0       0       0
  1350 ;;      Temps:          4       0       0       0       0
  1351 ;;      Totals:         4       0       0       0       0
  1352 ;;Total ram usage:        4 bytes
  1353 ;; Hardware stack levels used:    1
  1354 ;; Hardware stack levels required when called:    1
  1355 ;; This function calls:
  1356 ;;		_channel
  1357 ;; This function is called by:
  1358 ;;		Interrupt level 1
  1359 ;; This function uses a non-reentrant model
  1360 ;;
  1361                           
  1362                           
  1363                           ;psect for function _isr
  1364  0078                     _isr:	
  1365  0078                     i1l944:	
  1366                           
  1367                           ;../Laboratorio_4.X/Slave_Lab_4.c: 52:     if (ADIF){
  1368  0078  1283               	bcf	3,5	;RP0=0, select bank0
  1369  0079  1303               	bcf	3,6	;RP1=0, select bank0
  1370  007A  1F0C               	btfss	12,6	;volatile
  1371  007B  287D               	goto	u9_21
  1372  007C  287E               	goto	u9_20
  1373  007D                     u9_21:	
  1374  007D  28A1               	goto	i1l960
  1375  007E                     u9_20:	
  1376  007E                     i1l946:	
  1377                           
  1378                           ;../Laboratorio_4.X/Slave_Lab_4.c: 53:         ADIF = 0;
  1379  007E  130C               	bcf	12,6	;volatile
  1380  007F                     i1l948:	
  1381                           
  1382                           ;../Laboratorio_4.X/Slave_Lab_4.c: 54:         if (CONT == 0){
  1383  007F  0877               	movf	_CONT,w
  1384  0080  1D03               	btfss	3,2
  1385  0081  2883               	goto	u10_21
  1386  0082  2884               	goto	u10_20
  1387  0083                     u10_21:	
  1388  0083  2890               	goto	i1l954
  1389  0084                     u10_20:	
  1390  0084                     i1l950:	
  1391                           
  1392                           ;../Laboratorio_4.X/Slave_Lab_4.c: 55:             channel(0);
  1393  0084  3000               	movlw	0
  1394  0085  120A  118A  20F6  120A  118A  	fcall	_channel
  1395  008A                     i1l952:	
  1396                           
  1397                           ;../Laboratorio_4.X/Slave_Lab_4.c: 56:             ADC_CH1_BIN = ADRESH;
  1398  008A  1283               	bcf	3,5	;RP0=0, select bank0
  1399  008B  1303               	bcf	3,6	;RP1=0, select bank0
  1400  008C  081E               	movf	30,w	;volatile
  1401  008D  00F3               	movwf	??_isr
  1402  008E  0873               	movf	??_isr,w
  1403  008F  00A7               	movwf	_ADC_CH1_BIN
  1404  0090                     i1l954:	
  1405                           
  1406                           ;../Laboratorio_4.X/Slave_Lab_4.c: 59:         if (CONT == 1){
  1407  0090  0377               	decf	_CONT,w
  1408  0091  1D03               	btfss	3,2
  1409  0092  2894               	goto	u11_21
  1410  0093  2895               	goto	u11_20
  1411  0094                     u11_21:	
  1412  0094  28A1               	goto	i1l960
  1413  0095                     u11_20:	
  1414  0095                     i1l956:	
  1415                           
  1416                           ;../Laboratorio_4.X/Slave_Lab_4.c: 60:             channel(3);
  1417  0095  3003               	movlw	3
  1418  0096  120A  118A  20F6  120A  118A  	fcall	_channel
  1419  009B                     i1l958:	
  1420                           
  1421                           ;../Laboratorio_4.X/Slave_Lab_4.c: 61:             ADC_CH2_BIN = ADRESH;
  1422  009B  1283               	bcf	3,5	;RP0=0, select bank0
  1423  009C  1303               	bcf	3,6	;RP1=0, select bank0
  1424  009D  081E               	movf	30,w	;volatile
  1425  009E  00F3               	movwf	??_isr
  1426  009F  0873               	movf	??_isr,w
  1427  00A0  00A6               	movwf	_ADC_CH2_BIN
  1428  00A1                     i1l960:	
  1429                           
  1430                           ;../Laboratorio_4.X/Slave_Lab_4.c: 67:     if (TMR0IF){
  1431  00A1  1D0B               	btfss	11,2	;volatile
  1432  00A2  28A4               	goto	u12_21
  1433  00A3  28A5               	goto	u12_20
  1434  00A4                     u12_21:	
  1435  00A4  28B3               	goto	i1l130
  1436  00A5                     u12_20:	
  1437  00A5                     i1l962:	
  1438                           
  1439                           ;../Laboratorio_4.X/Slave_Lab_4.c: 68:         TMR0IF = 0;
  1440  00A5  110B               	bcf	11,2	;volatile
  1441  00A6                     i1l964:	
  1442                           
  1443                           ;../Laboratorio_4.X/Slave_Lab_4.c: 69:         TMR0 = 68;
  1444  00A6  3044               	movlw	68
  1445  00A7  0081               	movwf	1	;volatile
  1446  00A8                     i1l966:	
  1447                           
  1448                           ;../Laboratorio_4.X/Slave_Lab_4.c: 70:         CONT++;
  1449  00A8  3001               	movlw	1
  1450  00A9  00F3               	movwf	??_isr
  1451  00AA  0873               	movf	??_isr,w
  1452  00AB  07F7               	addwf	_CONT,f
  1453  00AC                     i1l968:	
  1454                           
  1455                           ;../Laboratorio_4.X/Slave_Lab_4.c: 72:         if (CONT > 2){
  1456  00AC  3003               	movlw	3
  1457  00AD  0277               	subwf	_CONT,w
  1458  00AE  1C03               	skipc
  1459  00AF  28B1               	goto	u13_21
  1460  00B0  28B2               	goto	u13_20
  1461  00B1                     u13_21:	
  1462  00B1  28B3               	goto	i1l130
  1463  00B2                     u13_20:	
  1464  00B2                     i1l970:	
  1465                           
  1466                           ;../Laboratorio_4.X/Slave_Lab_4.c: 73:             CONT = 0;
  1467  00B2  01F7               	clrf	_CONT
  1468  00B3                     i1l130:	
  1469  00B3  0876               	movf	??_isr+3,w
  1470  00B4  008A               	movwf	10
  1471  00B5  0875               	movf	??_isr+2,w
  1472  00B6  0084               	movwf	4
  1473  00B7  0E74               	swapf	(??_isr+1)^(0+4294967168),w
  1474  00B8  0083               	movwf	3
  1475  00B9  0EFE               	swapf	btemp,f
  1476  00BA  0E7E               	swapf	btemp,w
  1477  00BB  0009               	retfie
  1478  00BC                     __end_of_isr:	
  1479                           
  1480                           	psect	intentry
  1481  0004                     __pintentry:	
  1482                           ;incstack = 0
  1483                           ; Regs used in _isr: [wreg-fsr0h+status,2+status,0+pclath+cstack]
  1484                           
  1485  0004                     interrupt_function:	
  1486  007E                     saved_w	set	btemp
  1487  0004  00FE               	movwf	btemp
  1488  0005  0E03               	swapf	3,w
  1489  0006  00F4               	movwf	??_isr+1
  1490  0007  0804               	movf	4,w
  1491  0008  00F5               	movwf	??_isr+2
  1492  0009  080A               	movf	10,w
  1493  000A  00F6               	movwf	??_isr+3
  1494  000B  120A  118A  2878   	ljmp	_isr
  1495                           
  1496                           	psect	text8
  1497  00F6                     __ptext8:	
  1498 ;; *************** function _channel *****************
  1499 ;; Defined at:
  1500 ;;		line 27 in file "../Laboratorio_4.X/ADC.c"
  1501 ;; Parameters:    Size  Location     Type
  1502 ;;  ch              1    wreg     unsigned char 
  1503 ;; Auto vars:     Size  Location     Type
  1504 ;;  ch              1    2[COMMON] unsigned char 
  1505 ;; Return value:  Size  Location     Type
  1506 ;;                  1    wreg      void 
  1507 ;; Registers used:
  1508 ;;		wreg, fsr0l, fsr0h, status,2, status,0
  1509 ;; Tracked objects:
  1510 ;;		On entry : 0/0
  1511 ;;		On exit  : 0/0
  1512 ;;		Unchanged: 0/0
  1513 ;; Data sizes:     COMMON   BANK0   BANK1   BANK3   BANK2
  1514 ;;      Params:         0       0       0       0       0
  1515 ;;      Locals:         1       0       0       0       0
  1516 ;;      Temps:          2       0       0       0       0
  1517 ;;      Totals:         3       0       0       0       0
  1518 ;;Total ram usage:        3 bytes
  1519 ;; Hardware stack levels used:    1
  1520 ;; This function calls:
  1521 ;;		Nothing
  1522 ;; This function is called by:
  1523 ;;		_isr
  1524 ;; This function uses a non-reentrant model
  1525 ;;
  1526                           
  1527                           
  1528                           ;psect for function _channel
  1529  00F6                     _channel:	
  1530                           
  1531                           ;incstack = 0
  1532                           ; Regs used in _channel: [wreg-fsr0h+status,2+status,0]
  1533                           ;channel@ch stored from wreg
  1534  00F6  00F2               	movwf	channel@ch
  1535  00F7                     i1l904:	
  1536                           
  1537                           ;../Laboratorio_4.X/ADC.c: 28:     switch(ch){
  1538  00F7  2906               	goto	i1l908
  1539  00F8                     i1l11:	
  1540                           ;../Laboratorio_4.X/ADC.c: 29:         case 0:
  1541                           
  1542                           
  1543                           ;../Laboratorio_4.X/ADC.c: 30:             ADCON0bits.CHS0 = 0;
  1544  00F8  1283               	bcf	3,5	;RP0=0, select bank0
  1545  00F9  1303               	bcf	3,6	;RP1=0, select bank0
  1546  00FA  111F               	bcf	31,2	;volatile
  1547                           
  1548                           ;../Laboratorio_4.X/ADC.c: 31:             ADCON0bits.CHS1 = 0;
  1549  00FB  119F               	bcf	31,3	;volatile
  1550                           
  1551                           ;../Laboratorio_4.X/ADC.c: 32:             ADCON0bits.CHS2 = 0;
  1552  00FC  121F               	bcf	31,4	;volatile
  1553                           
  1554                           ;../Laboratorio_4.X/ADC.c: 33:             ADCON0bits.CHS3 = 0;
  1555  00FD  129F               	bcf	31,5	;volatile
  1556                           
  1557                           ;../Laboratorio_4.X/ADC.c: 34:             break;
  1558  00FE  2916               	goto	i1l14
  1559  00FF                     i1l13:	
  1560                           ;../Laboratorio_4.X/ADC.c: 35:         case 3:
  1561                           
  1562                           
  1563                           ;../Laboratorio_4.X/ADC.c: 36:             ADCON0bits.CHS0 = 1;
  1564  00FF  1283               	bcf	3,5	;RP0=0, select bank0
  1565  0100  1303               	bcf	3,6	;RP1=0, select bank0
  1566  0101  151F               	bsf	31,2	;volatile
  1567                           
  1568                           ;../Laboratorio_4.X/ADC.c: 37:             ADCON0bits.CHS1 = 1;
  1569  0102  159F               	bsf	31,3	;volatile
  1570                           
  1571                           ;../Laboratorio_4.X/ADC.c: 38:             ADCON0bits.CHS2 = 0;
  1572  0103  121F               	bcf	31,4	;volatile
  1573                           
  1574                           ;../Laboratorio_4.X/ADC.c: 39:             ADCON0bits.CHS3 = 0;
  1575  0104  129F               	bcf	31,5	;volatile
  1576                           
  1577                           ;../Laboratorio_4.X/ADC.c: 40:             break;
  1578  0105  2916               	goto	i1l14
  1579  0106                     i1l908:	
  1580  0106  0872               	movf	channel@ch,w
  1581  0107  00F0               	movwf	??_channel
  1582  0108  01F1               	clrf	??_channel+1
  1583                           
  1584                           ; Switch on 2 bytes has been partitioned into a top level switch of size 1, and 1 sub-sw
      +                          itches
  1585                           ; Switch size 1, requested type "simple"
  1586                           ; Number of cases is 1, Range of values is 0 to 0
  1587                           ; switch strategies available:
  1588                           ; Name         Instructions Cycles
  1589                           ; simple_byte            4     3 (average)
  1590                           ; direct_byte           11     8 (fixed)
  1591                           ; jumptable            260     6 (fixed)
  1592                           ;	Chosen strategy is simple_byte
  1593  0109  0871               	movf	??_channel+1,w
  1594  010A  3A00               	xorlw	0	; case 0
  1595  010B  1903               	skipnz
  1596  010C  290E               	goto	i1l1152
  1597  010D  2916               	goto	i1l14
  1598  010E                     i1l1152:	
  1599                           
  1600                           ; Switch size 1, requested type "simple"
  1601                           ; Number of cases is 2, Range of values is 0 to 3
  1602                           ; switch strategies available:
  1603                           ; Name         Instructions Cycles
  1604                           ; simple_byte            7     4 (average)
  1605                           ; direct_byte           20     8 (fixed)
  1606                           ; jumptable            260     6 (fixed)
  1607                           ;	Chosen strategy is simple_byte
  1608  010E  0870               	movf	??_channel,w
  1609  010F  3A00               	xorlw	0	; case 0
  1610  0110  1903               	skipnz
  1611  0111  28F8               	goto	i1l11
  1612  0112  3A03               	xorlw	3	; case 3
  1613  0113  1903               	skipnz
  1614  0114  28FF               	goto	i1l13
  1615  0115  2916               	goto	i1l14
  1616  0116                     i1l14:	
  1617  0116  0008               	return
  1618  0117                     __end_of_channel:	
  1619  007E                     btemp	set	126	;btemp
  1620  007E                     wtemp0	set	126


Data Sizes:
    Strings     0
    Constant    0
    Data        0
    BSS         3
    Persistent  0
    Stack       0

Auto Spaces:
    Space          Size  Autos    Used
    COMMON           14      7       8
    BANK0            80      6       8
    BANK1            80      0       0
    BANK3            96      0       0
    BANK2            96      0       0

Pointer List with Targets:

    None.

Critical Paths under _main in COMMON

    None.

Critical Paths under _isr in COMMON

    _isr->_channel

Critical Paths under _main in BANK0

    _init->_spiInit

Critical Paths under _isr in BANK0

    None.

Critical Paths under _main in BANK1

    None.

Critical Paths under _isr in BANK1

    None.

Critical Paths under _main in BANK3

    None.

Critical Paths under _isr in BANK3

    None.

Critical Paths under _main in BANK2

    None.

Critical Paths under _isr in BANK2

    None.

Call Graph Tables:

 ---------------------------------------------------------------------------------
 (Depth) Function   	        Calls       Base Space   Used Autos Params    Refs
 ---------------------------------------------------------------------------------
 (0) _main                                                 2     2      0     509
                                              4 BANK0      2     2      0
                               _init
                            _initADC
                            _initOsc
                           _initTMR0
                           _spiWrite
 ---------------------------------------------------------------------------------
 (1) _spiWrite                                             1     1      0      31
                                              0 BANK0      1     1      0
 ---------------------------------------------------------------------------------
 (1) _initTMR0                                             0     0      0       0
 ---------------------------------------------------------------------------------
 (1) _initOsc                                              3     3      0      22
                                              0 BANK0      3     3      0
 ---------------------------------------------------------------------------------
 (1) _initADC                                              0     0      0       0
 ---------------------------------------------------------------------------------
 (1) _init                                                 0     0      0     456
                            _spiInit
 ---------------------------------------------------------------------------------
 (2) _spiInit                                              4     1      3     456
                                              0 BANK0      4     1      3
 ---------------------------------------------------------------------------------
 Estimated maximum stack depth 2
 ---------------------------------------------------------------------------------
 (Depth) Function   	        Calls       Base Space   Used Autos Params    Refs
 ---------------------------------------------------------------------------------
 (3) _isr                                                  4     4      0      22
                                              3 COMMON     4     4      0
                            _channel
 ---------------------------------------------------------------------------------
 (4) _channel                                              3     3      0      22
                                              0 COMMON     3     3      0
 ---------------------------------------------------------------------------------
 Estimated maximum stack depth 4
 ---------------------------------------------------------------------------------

 Call Graph Graphs:

 _main (ROOT)
   _init
     _spiInit
   _initADC
   _initOsc
   _initTMR0
   _spiWrite

 _isr (ROOT)
   _channel

 Address spaces:
Name               Size   Autos  Total    Cost      Usage
BITCOMMON            E      0       0       0        0.0%
EEDATA             100      0       0       0        0.0%
NULL                 0      0       0       0        0.0%
CODE                 0      0       0       0        0.0%
COMMON               E      7       8       1       57.1%
BITSFR0              0      0       0       1        0.0%
SFR0                 0      0       0       1        0.0%
BITSFR1              0      0       0       2        0.0%
SFR1                 0      0       0       2        0.0%
STACK                0      0       0       2        0.0%
ABS                  0      0      10       3        0.0%
BITBANK0            50      0       0       4        0.0%
BITSFR3              0      0       0       4        0.0%
SFR3                 0      0       0       4        0.0%
BANK0               50      6       8       5       10.0%
BITSFR2              0      0       0       5        0.0%
SFR2                 0      0       0       5        0.0%
BITBANK1            50      0       0       6        0.0%
BANK1               50      0       0       7        0.0%
BITBANK3            60      0       0       8        0.0%
BANK3               60      0       0       9        0.0%
BITBANK2            60      0       0      10        0.0%
BANK2               60      0       0      11        0.0%
DATA                 0      0      10      12        0.0%


Microchip Technology PIC Macro Assembler V2.10 build 88905656 
Symbol Table                                                                                   Sun Feb 16 22:25:19 2020

                       l7 015B               __CFG_CP$OFF 0000               _SSPSTATbits 0094  
                      l20 001E                        l21 0076                        l30 0077  
                      l22 0024                        l23 002A                        l24 0030  
                      l25 0036                        l26 003C                        l27 0042  
                      l28 0048                        l29 004E                        l46 012F  
                      l47 0134                        l56 016A                       l141 014E  
                     l144 0164                       l914 001D                       l918 0054  
                     u140 0123                       u141 0122                       u157 00E6  
            __CFG_CPD$OFF 0000                       _isr 0078                       fsr0 0004  
            __CFG_LVP$OFF 0000                      l1050 0127                      l1052 0129  
                    l1060 0135                      l1054 012E                      l1046 011A  
                    l1070 0141                      l1062 0139                      l1150 005C  
                    l1048 0123                      l1072 0143                      l1064 013A  
                    l1056 014F                      l1080 00C7                      l1066 013B  
                    l1074 015C                      l1058 0168                      l1090 00D6  
                    l1082 00CC                      l1068 013C                      l1092 00D7  
                    l1084 00D1                      l1076 00BC                      l1094 00DA  
                    l1086 00D4                      l1078 00C2                      l1096 00E0  
                    l1088 00D5                      l1098 00EA                      _ADIF 0066  
                    ?_isr 0070                      _CONT 0077                      i1l11 00F8  
                    i1l13 00FF                      i1l14 0116                      _TMR0 0001  
                    u9_20 007E                      u9_21 007D              __CFG_WRT$OFF 0000  
                    _main 00BC                      _init 0135                      btemp 007E  
                    start 000E             __CFG_IESO$OFF 0000                     ??_isr 0073  
                   ?_main 0070                     ?_init 0070             __CFG_WDTE$OFF 0000  
                   _ANSEL 0188                     i1l130 00B3                     i1l904 00F7  
                   i1l908 0106                     i1l950 0084                     i1l952 008A  
                   i1l960 00A1                     i1l944 0078                     i1l970 00B2  
                   i1l962 00A5                     i1l954 0090                     i1l946 007E  
                   i1l964 00A6                     i1l956 0095                     i1l948 007F  
                   i1l966 00A8                     i1l958 009B                     i1l968 00AC  
                   u10_20 0084                     u10_21 0083                     u11_20 0095  
                   u11_21 0094                     u12_20 00A5                     u12_21 00A4  
                   u13_20 00B2                     u13_21 00B1                     _PORTA 0005  
                   _PORTB 0006                     _PORTC 0007                     _PORTD 0008  
                   _TRISA 0085                     _TRISB 0086                     _TRISC 0087  
                   _TRISD 0088           __end_of_channel 0117            __CFG_FCMEN$OFF 0000  
         __end_of_initADC 015C           __end_of_initOsc 0078            __CFG_BOREN$OFF 0000  
                   pclath 000A           __end_of_spiInit 0135                     status 0003  
                   wtemp0 007E            __CFG_MCLRE$OFF 0000           __initialization 0011  
            __end_of_main 00F6              __end_of_init 014F                    ??_main 0024  
                  ??_init 0024                    _ADRESH 001E                    _ANSELH 0189  
                  i1l1152 010E                    _INTCON 000B               initOsc@frec 0022  
                  _TMR0IF 005A                    _TRISC3 043B                    _TRISC5 043D  
                  _SSPCON 0014                    _SSPBUF 0013            __CFG_PWRTE$OFF 0000  
        __end_of_initTMR0 0165                 ??_channel 0070                 ??_initADC 0020  
               ??_initOsc 0020                    saved_w 007E          __end_of_spiWrite 016B  
               ??_spiInit 0023   __end_of__initialization 0016            __pcstackCOMMON 0070  
              __pbssBANK0 0026                __pmaintext 00BC                __pintentry 0004  
                 _SSPSTAT 0094                 ?_initTMR0 0070                 ?_spiWrite 0070  
                 _channel 00F6                   __ptext1 0165                   __ptext2 015C  
                 __ptext3 001A                   __ptext4 014F                   __ptext5 0135  
                 __ptext6 0117                   __ptext7 0078                   __ptext8 00F6  
                 _initADC 014F                   _initOsc 001A              __size_of_isr 0044  
                 _spiInit 0117      end_of_initialization 0016                ??_initTMR0 0020  
              ??_spiWrite 0020               spiWrite@dat 0020               _ADC_CH1_BIN 0027  
             _ADC_CH2_BIN 0026       start_initialization 0011               __end_of_isr 00BC  
__CFG_FOSC$INTRC_NOCLKOUT 0000               __pbssCOMMON 0077                 ___latbits 0002  
           __pcstackBANK0 0020         __size_of_initTMR0 0009         __size_of_spiWrite 0006  
                ?_channel 0070                  ?_initADC 0070                  ?_initOsc 0070  
                ?_spiInit 0020                 channel@ch 0072      spiInit@sTransmitEdge 0022  
       interrupt_function 0004        spiInit@sDataSample 0020                _ADCON0bits 001F  
              _ADCON1bits 009F          __size_of_channel 0021          __size_of_initADC 000D  
        __size_of_initOsc 005E          __size_of_spiInit 001E         __CFG_BOR4V$BOR40V 0000  
                _initTMR0 015C             __size_of_main 003A             __size_of_init 001A  
                _spiWrite 0165              spiInit@sType 0023         spiInit@sClockIdle 0021  
                intlevel1 0000                _OSCCONbits 008F                _OPTION_REG 0081  
